Certificate:
    Data:
        Version: 3 (0x2)
        Serial Number: 289 (0x121)
    Signature Algorithm: md5WithRSAEncryption
        Issuer: C=CN, ST=Fujian, L=Xiamen, O=Pinnacle, OU=Aclas, CN=Aclas/emailAddress=aclas@aclas.com
        Validity
            Not Before: Jun 10 08:05:06 2014 GMT
            Not After : Jun 10 08:05:06 2015 GMT
        Subject: C=CN, ST=Fujian, O=Pinnacle, OU=Aclas, CN=Aclas/emailAddress=aclas@aclas.com
        Subject Public Key Info:
            Public Key Algorithm: rsaEncryption
                Public-Key: (2048 bit)
                Modulus:
                    00:bb:a3:16:1e:85:6e:57:b5:1f:18:0d:9e:54:22:
                    62:29:a0:20:c5:78:9b:44:d3:c3:60:c6:b1:c3:d2:
                    1a:08:c2:7a:37:8c:9a:2a:c6:a2:b5:81:af:9e:62:
                    61:b0:c5:2f:a2:ab:cb:aa:bb:e2:5a:5d:4b:cc:f1:
                    64:1d:d1:e0:0e:3c:9e:f0:3a:0a:09:a4:4c:69:1b:
                    fa:c7:78:4d:6e:4a:d5:9a:17:6b:be:89:9e:4a:5f:
                    1a:68:ac:c5:46:81:ee:f6:27:71:c5:f8:77:4e:50:
                    31:97:96:ac:4d:8d:79:5f:18:62:bf:f1:d3:64:03:
                    c0:14:f9:f2:04:0a:36:07:46:46:e2:90:c2:d9:47:
                    55:49:8e:4e:d8:91:ee:99:19:20:9d:42:8d:0a:93:
                    4f:ef:72:92:3d:b5:88:9c:03:21:be:fb:9a:8a:2e:
                    2e:9e:98:a4:54:1f:c9:36:22:e0:b2:26:a9:62:20:
                    03:35:6e:19:88:cd:27:47:bc:a9:a0:87:99:07:fc:
                    c0:d3:fd:72:5a:a7:9f:83:ad:9a:92:0c:78:6c:ac:
                    8a:97:34:37:0e:4a:fd:9a:e0:eb:88:48:ea:6e:6d:
                    cf:d0:97:6b:bb:c6:c5:c6:18:fe:15:19:48:4e:c9:
                    8a:ef:b2:4c:d8:59:36:ba:67:79:ce:3d:1e:c7:73:
                    1a:f5
                Exponent: 65537 (0x10001)
        X509v3 extensions:
            X509v3 Basic Constraints: 
                CA:FALSE
            Netscape Comment: 
                OpenSSL Generated Certificate
            X509v3 Subject Key Identifier: 
                52:EB:8F:01:2A:E1:B0:A0:36:EF:31:B4:89:F7:02:4F:41:7D:FE:90
            X509v3 Authority Key Identifier: 
                keyid:3E:22:EB:93:5D:61:AD:A5:0D:CE:24:88:52:7E:DC:3D:64:3D:72:B2

    Signature Algorithm: md5WithRSAEncryption
         40:48:f3:d8:85:46:13:d2:8c:94:05:31:5f:a8:17:35:dd:57:
         8c:5d:f2:99:0e:9b:60:f0:f7:47:02:b0:3d:45:bd:85:2d:49:
         1a:f1:a5:e2:3f:d3:93:05:63:fa:54:bc:f3:05:3b:3d:5c:c2:
         25:78:23:ca:40:87:02:9a:b6:9d:0a:97:57:ca:1c:ff:ce:c6:
         76:63:c9:d4:71:df:c7:68:35:06:01:09:08:fc:e8:c4:78:7c:
         6d:fb:6c:3a:93:ca:1d:40:f7:22:29:8f:0c:75:00:24:e7:79:
         af:09:4d:01:fb:73:aa:0f:9a:dc:6d:fa:40:f1:6d:93:9e:15:
         73:74
-----BEGIN CERTIFICATE-----
MIIDajCCAtOgAwIBAgICASEwDQYJKoZIhvcNAQEEBQAwgYIxCzAJBgNVBAYTAkNO
MQ8wDQYDVQQIDAZGdWppYW4xDzANBgNVBAcMBlhpYW1lbjERMA8GA1UECgwIUGlu
bmFjbGUxDjAMBgNVBAsMBUFjbGFzMQ4wDAYDVQQDDAVBY2xhczEeMBwGCSqGSIb3
DQEJARYPYWNsYXNAYWNsYXMuY29tMB4XDTE0MDYxMDA4MDUwNloXDTE1MDYxMDA4
MDUwNlowcTELMAkGA1UEBhMCQ04xDzANBgNVBAgMBkZ1amlhbjERMA8GA1UECgwI
UGlubmFjbGUxDjAMBgNVBAsMBUFjbGFzMQ4wDAYDVQQDDAVBY2xhczEeMBwGCSqG
SIb3DQEJARYPYWNsYXNAYWNsYXMuY29tMIIBIjANBgkqhkiG9w0BAQEFAAOCAQ8A
MIIBCgKCAQEAu6MWHoVuV7UfGA2eVCJiKaAgxXibRNPDYMaxw9IaCMJ6N4yaKsai
tYGvnmJhsMUvoqvLqrviWl1LzPFkHdHgDjye8DoKCaRMaRv6x3hNbkrVmhdrvome
Sl8aaKzFRoHu9idxxfh3TlAxl5asTY15Xxhiv/HTZAPAFPnyBAo2B0ZG4pDC2UdV
SY5O2JHumRkgnUKNCpNP73KSPbWInAMhvvuaii4unpikVB/JNiLgsiapYiADNW4Z
iM0nR7ypoIeZB/zA0/1yWqefg62akgx4bKyKlzQ3Dkr9muDriEjqbm3P0Jdru8bF
xhj+FRlITsmK77JM2Fk2umd5zj0ex3Ma9QIDAQABo3sweTAJBgNVHRMEAjAAMCwG
CWCGSAGG+EIBDQQfFh1PcGVuU1NMIEdlbmVyYXRlZCBDZXJ0aWZpY2F0ZTAdBgNV
HQ4EFgQUUuuPASrhsKA27zG0ifcCT0F9/pAwHwYDVR0jBBgwFoAUPiLrk11hraUN
ziSIUn7cPWQ9crIwDQYJKoZIhvcNAQEEBQADgYEAQEjz2IVGE9KMlAUxX6gXNd1X
jF3ymQ6bYPD3RwKwPUW9hS1JGvGl4j/TkwVj+lS88wU7PVzCJXgjykCHApq2nQqX
V8oc/87GdmPJ1HHfx2g1BgEJCPzoxHh8bftsOpPKHUD3IimPDHUAJOd5rwlNAftz
qg+a3G36QPFtk54Vc3Q=
-----END CERTIFICATE-----
